(dp0
VServer
p1
Vcmsweb.cern.ch
p2
sVPort
p3
V
p4
sVRequestName
p5
V240221_224318:mbuonsan_crab_SkimB4Mu_2023eraD-v2_stream6_Mini
p6
sVvoRole
p7
VNULL
p8
sVvoGroup
p9
g4
sVinstance
p10
Vprod
p11
sVOriginalConfig
p12
ccopy_reg
_reconstructor
p13
(cWMCore.Configuration
Configuration
p14
c__builtin__
object
p15
Ntp16
Rp17
(dp18
V_internal_sections
p19
(lp20
VGeneral
p21
aVJobType
p22
aVData
p23
aVSite
p24
aVUser
p25
aVDebug
p26
asg21
g13
(cWMCore.Configuration
ConfigSection
p27
g15
Ntp28
Rp29
(dp30
V_internal_documentation
p31
g4
sV_internal_name
p32
g21
sV_internal_settings
p33
c__builtin__
set
p34
((lp35
VworkArea
p36
aVtransferOutputs
p37
aVrequestName
p38
aVtransferLogs
p39
atp40
Rp41
sV_internal_docstrings
p42
(dp43
sV_internal_children
p44
g34
((lp45
tp46
Rp47
sV_internal_parent_ref
p48
NsV_internal_skipChecks
p49
I00
sg38
VSkimB4Mu_2023eraD-v2_stream6_Mini
p50
sg36
Vcrab_projects
p51
sg37
I01
sg39
I00
sbsg22
g13
(g27
g15
Ntp52
Rp53
(dp54
g31
g4
sg32
g22
sg33
g34
((lp55
VpsetName
p56
aVallowUndistributedCMSSW
p57
aVpluginName
p58
atp59
Rp60
sg42
(dp61
sg44
g34
((lp62
tp63
Rp64
sg48
Nsg49
I00
sg58
VAnalysis
p65
sg56
V/lustrehome/mbuonsante/B_4mu/CMSSW_13_0_13/src/B4muNtuplizer/CrabSubmission/2023_eraD-v2/PatAndTree_cfg.py
p66
sg57
I01
sbsg23
g13
(g27
g15
Ntp67
Rp68
(dp69
g31
g4
sg32
g23
sg33
g34
((lp70
VoutputDatasetTag
p71
aVinputDBS
p72
aVallowNonValidInputDataset
p73
aVinputDataset
p74
aVlumiMask
p75
aVunitsPerJob
p76
aVsplitting
p77
atp78
Rp79
sg42
(dp80
sg44
g34
((lp81
tp82
Rp83
sg48
Nsg49
I00
sg74
V/ParkingDoubleMuonLowMass6/Run2023D-22Sep2023_v2-v1/MINIAOD
p84
sg73
I01
sg72
Vglobal
p85
sg77
VLumiBased
p86
sg76
I50
sg75
Vhttps://cms-service-dqmdc.web.cern.ch/CAF/certification/Collisions23/Cert_Collisions2023_eraD_369803_370790_Golden.json
p87
sg71
g50
sbsg24
g13
(g27
g15
Ntp88
Rp89
(dp90
g31
g4
sg32
g24
sg33
g34
((lp91
VignoreGlobalBlacklist
p92
aVstorageSite
p93
atp94
Rp95
sg42
(dp96
sg44
g34
((lp97
tp98
Rp99
sg48
Nsg49
I00
sg93
VT2_IT_Bari
p100
sg92
I01
sbsg25
g13
(g27
g15
Ntp101
Rp102
(dp103
g31
g4
sg32
g25
sg33
g34
((lp104
tp105
Rp106
sg42
(dp107
sg44
g34
((lp108
tp109
Rp110
sg48
Nsg49
I00
sbsg26
g13
(g27
g15
Ntp111
Rp112
(dp113
g31
g4
sg32
g26
sg33
g34
((lp114
tp115
Rp116
sg42
(dp117
sg44
g34
((lp118
tp119
Rp120
sg48
Nsg49
I00
sbsbs.